Certificate:
    Data:
        Version: 1 (0x0)
        Serial Number: 3 (0x3)
    Signature Algorithm: sha256WithRSAEncryption
        Issuer: C=PL, ST=Mazowieckie, L=Warszawa, O=Politechnika Warszawska, OU=Wydzial Elektryczny, CN=www.od.iem.pw.edu.pl/emailAddress=mateusz.molasy95@gmail.com
        Validity
            Not Before: May 14 18:34:43 2016 GMT
            Not After : May 14 18:34:43 2017 GMT
        Subject: C=PL, ST=Mazowieckie, L=Warszawa, O=Mateusz Molasy, OU=Molasy, CN=www.edi.zetis.pw/emailAddress=moliq@o2.pl
        Subject Public Key Info:
            Public Key Algorithm: rsaEncryption
                Public-Key: (2048 bit)
                Modulus:
                    00:b4:5d:ec:f1:9c:43:80:f5:95:28:24:57:05:e2:
                    d2:6c:cb:ac:22:e2:54:e8:20:00:14:c6:40:89:de:
                    1c:f8:fd:2c:f5:d0:1f:49:62:ce:22:01:8c:76:76:
                    40:e9:fc:28:0d:ff:8c:50:df:38:87:4f:9f:0b:36:
                    f8:26:20:0c:51:d0:c5:52:8f:a2:e8:a0:0a:41:64:
                    78:70:e5:40:10:08:6d:74:23:02:9f:37:2c:53:0c:
                    f4:43:09:90:63:6e:f2:52:c7:ac:0b:99:2f:6a:67:
                    93:91:a3:6b:26:75:10:49:da:c3:f1:4b:83:16:a9:
                    b8:f4:b2:6d:60:36:76:40:95:53:4b:dd:c1:fb:1f:
                    3c:19:8f:14:8b:19:0b:40:52:ce:ba:c3:7e:27:d6:
                    1d:16:5d:f4:ef:cd:33:df:f2:8f:af:b9:36:99:61:
                    4a:2d:03:fd:02:4b:be:e3:42:42:47:c1:8a:a8:f3:
                    ec:69:25:da:da:6e:f9:38:1f:96:5c:08:d4:04:e6:
                    86:62:0d:fd:4b:de:18:a0:4e:22:63:dd:28:11:56:
                    2c:d2:40:d7:0a:95:80:39:bd:c3:7a:af:b0:ae:cc:
                    5a:d2:75:e4:0c:a2:0c:fd:14:29:73:b5:ce:49:1c:
                    51:69:b6:db:ee:a0:2d:3f:16:0f:15:6b:6c:cc:a6:
                    08:5b
                Exponent: 65537 (0x10001)
    Signature Algorithm: sha256WithRSAEncryption
         41:1b:8f:4e:53:23:5e:c3:76:1e:b0:1d:ac:26:a0:e0:2c:b1:
         81:79:66:6d:d0:dc:10:a1:97:a9:db:75:6c:44:4d:d0:e0:f4:
         72:95:14:05:7b:2d:a6:14:49:28:70:12:0b:bc:0b:6f:e9:61:
         14:d5:17:41:fe:ee:f5:ca:30:2c:ab:a8:a4:a4:a2:6b:fd:f0:
         4b:1f:d5:3b:54:b4:f1:28:b6:ce:2b:db:31:77:45:ec:1c:f9:
         44:5a:dd:97:28:32:ae:33:1a:dd:f7:15:94:05:06:64:af:ec:
         46:45:58:5a:8c:5e:f0:9d:56:bf:de:33:48:02:e5:7e:1a:41:
         b4:4f:21:a0:c1:3c:ca:1c:5d:c3:c6:87:88:f0:cf:7e:e3:88:
         15:d9:12:9e:ec:da:4f:7b:75:2a:eb:4e:0f:08:0c:0e:4e:22:
         c0:7f:e9:5e:e2:ae:12:eb:ef:38:e7:66:38:bc:60:ea:4a:8d:
         b2:6e:41:3a:a0:5e:77:2f:f5:7a:e0:9d:f1:b2:d1:6b:8f:bf:
         93:34:5f:29:01:79:6d:78:5a:f9:b1:2f:cc:9b:17:e5:c8:53:
         c7:e6:15:75:8f:f0:62:ec:ab:d1:a6:15:58:d9:ed:39:68:aa:
         d7:10:37:c7:e1:e8:ea:50:f0:78:6e:4e:c3:8f:12:1e:7d:20:
         9d:9d:0a:3e
-----BEGIN CERTIFICATE-----
MIIDzTCCArUCAQMwDQYJKoZIhvcNAQELBQAwgcAxCzAJBgNVBAYTAlBMMRQwEgYD
VQQIDAtNYXpvd2llY2tpZTERMA8GA1UEBwwIV2Fyc3phd2ExIDAeBgNVBAoMF1Bv
bGl0ZWNobmlrYSBXYXJzemF3c2thMRwwGgYDVQQLDBNXeWR6aWFsIEVsZWt0cnlj
em55MR0wGwYDVQQDDBR3d3cub2QuaWVtLnB3LmVkdS5wbDEpMCcGCSqGSIb3DQEJ
ARYabWF0ZXVzei5tb2xhc3k5NUBnbWFpbC5jb20wHhcNMTYwNTE0MTgzNDQzWhcN
MTcwNTE0MTgzNDQzWjCBlzELMAkGA1UEBhMCUEwxFDASBgNVBAgMC01hem93aWVj
a2llMREwDwYDVQQHDAhXYXJzemF3YTEXMBUGA1UECgwOTWF0ZXVzeiBNb2xhc3kx
DzANBgNVBAsMBk1vbGFzeTEZMBcGA1UEAwwQd3d3LmVkaS56ZXRpcy5wdzEaMBgG
CSqGSIb3DQEJARYLbW9saXFAbzIucGwwggEiMA0GCSqGSIb3DQEBAQUAA4IBDwAw
ggEKAoIBAQC0XezxnEOA9ZUoJFcF4tJsy6wi4lToIAAUxkCJ3hz4/Sz10B9JYs4i
AYx2dkDp/CgN/4xQ3ziHT58LNvgmIAxR0MVSj6LooApBZHhw5UAQCG10IwKfNyxT
DPRDCZBjbvJSx6wLmS9qZ5ORo2smdRBJ2sPxS4MWqbj0sm1gNnZAlVNL3cH7HzwZ
jxSLGQtAUs66w34n1h0WXfTvzTPf8o+vuTaZYUotA/0CS77jQkJHwYqo8+xpJdra
bvk4H5ZcCNQE5oZiDf1L3higTiJj3SgRVizSQNcKlYA5vcN6r7CuzFrSdeQMogz9
FClztc5JHFFpttvuoC0/Fg8Va2zMpghbAgMBAAEwDQYJKoZIhvcNAQELBQADggEB
AEEbj05TI17Ddh6wHawmoOAssYF5Zm3Q3BChl6nbdWxETdDg9HKVFAV7LaYUSShw
Egu8C2/pYRTVF0H+7vXKMCyrqKSkomv98Esf1TtUtPEots4r2zF3Rewc+URa3Zco
Mq4zGt33FZQFBmSv7EZFWFqMXvCdVr/eM0gC5X4aQbRPIaDBPMocXcPGh4jwz37j
iBXZEp7s2k97dSrrTg8IDA5OIsB/6V7irhLr7zjnZji8YOpKjbJuQTqgXncv9Xrg
nfGy0WuPv5M0XykBeW14WvmxL8ybF+XIU8fmFXWP8GLsq9GmFVjZ7TloqtcQN8fh
6OpQ8HhuTsOPEh59IJ2dCj4=
-----END CERTIFICATE-----
